; Function Attrs: nounwind uwtable
define dso_local void @addReplyCommandFlags(ptr noundef %c, i64 noundef %flags, ptr nocapture noundef readonly %replyFlags) local_unnamed_addr #0 {
entry:
  %name14 = getelementptr inbounds i8, ptr %replyFlags, i64 8
  %0 = load ptr, ptr %name14, align 8
  %tobool.not15 = icmp eq ptr %0, null
  br i1 %tobool.not15, label %while.end, label %while.body

while.body:                                       ; preds = %entry, %while.body
  %indvars.iv = phi i64 [ %indvars.iv.next, %while.body ], [ 0, %entry ]
  %count.016 = phi i32 [ %spec.select, %while.body ], [ 0, %entry ]
  %arrayidx18 = getelementptr inbounds %struct.replyFlagNames, ptr %replyFlags, i64 %indvars.iv
  %1 = load i64, ptr %arrayidx18, align 8
  %and = and i64 %1, %flags
  %tobool3.not = icmp ne i64 %and, 0
  %inc = zext i1 %tobool3.not to i32
  %spec.select = add nuw nsw i32 %count.016, %inc
  %indvars.iv.next = add nuw nsw i64 %indvars.iv, 1
  %name = getelementptr inbounds %struct.replyFlagNames, ptr %replyFlags, i64 %indvars.iv.next, i32 1
  %2 = load ptr, ptr %name, align 8
  %tobool.not = icmp eq ptr %2, null
  br i1 %tobool.not, label %while.end.loopexit, label %while.body, !llvm.loop !50

while.end.loopexit:                               ; preds = %while.body
  %3 = zext nneg i32 %spec.select to i64
  br label %while.end

while.end:                                        ; preds = %while.end.loopexit, %entry
  %count.0.lcssa = phi i64 [ 0, %entry ], [ %3, %while.end.loopexit ]
  tail call void @addReplySetLen(ptr noundef %c, i64 noundef %count.0.lcssa) #38
  %4 = load ptr, ptr %name14, align 8
  %tobool9.not20 = icmp eq ptr %4, null
  br i1 %tobool9.not20, label %while.end22, label %while.body10

while.body10:                                     ; preds = %while.end, %if.end20
  %indvars.iv24 = phi i64 [ %indvars.iv.next25, %if.end20 ], [ 0, %while.end ]
  %5 = phi ptr [ %7, %if.end20 ], [ %4, %while.end ]
  %arrayidx722 = getelementptr inbounds %struct.replyFlagNames, ptr %replyFlags, i64 %indvars.iv24
  %6 = load i64, ptr %arrayidx722, align 8
  %and14 = and i64 %6, %flags
  %tobool15.not = icmp eq i64 %and14, 0
  br i1 %tobool15.not, label %if.end20, label %if.then16

if.then16:                                        ; preds = %while.body10
  tail call void @addReplyStatus(ptr noundef %c, ptr noundef nonnull %5) #38
  br label %if.end20

if.end20:                                         ; preds = %if.then16, %while.body10
  %indvars.iv.next25 = add nuw nsw i64 %indvars.iv24, 1
  %name8 = getelementptr inbounds %struct.replyFlagNames, ptr %replyFlags, i64 %indvars.iv.next25, i32 1
  %7 = load ptr, ptr %name8, align 8
  %tobool9.not = icmp eq ptr %7, null
  br i1 %tobool9.not, label %while.end22, label %while.body10, !llvm.loop !51

while.end22:                                      ; preds = %if.end20, %while.end
  ret void
}